(lp0
(lp1
S'2869800206'
p2
aS'1046371805'
p3
aS'2869800330'
p4
aS'2757147462'
p5
aS'2869800474'
p6
aS'2771457174'
p7
aS'2757400982'
p8
aS'2101661773'
p9
aS'2888877639\\\n'
p10
aS'1674953173'
p11
aS'2039438658'
p12
aS'2342316956'
p13
aS'2526617495'
p14
aS'2864867835'
p15
aS'2869005843'
p16
aS'2869800401'
p17
aS'2870847140'
p18
aS'2871141491\\\n'
p19
aS'2869827211\\\n'
p20
aS'2758992428'
p21
aS'2759281468'
p22
aS'2759299168'
p23
aS'2763189133'
p24
aS'2768460031'
p25
aS'2769562313'
p26
aS'2770316828'
p27
aS'2770676658'
p28
aS'2771974637'
p29
aS'2772279316'
p30
aS'2772432106'
p31
aS'2772506697'
p32
aS'2772825685'
p33
aS'2773035861'
p34
aS'2773542506'
p35
aS'2773694093'
p36
aS'2773758112'
p37
aS'2774326010'
p38
aS'2774387840'
p39
aS'2774601919'
p40
aS'2774723285'
p41
aS'2774792193'
p42
aS'2774828903'
p43
aS'2775035652'
p44
aS'2775295974'
p45
aS'2775304301'
p46
aS'2775369437'
p47
aS'2775391518'
p48
aS'2775391588'
p49
aS'2775433882'
p50
aS'2775473746'
p51
aS'2775687835'
p52
aS'2776046012'
p53
aS'2776130760'
p54
aS'2776162299'
p55
aS'2776258161'
p56
aS'2776530471'
p57
aS'2776585025'
p58
aS'2776677180'
p59
aS'2776682381'
p60
aS'2776835206'
p61
aS'2776911089'
p62
aS'2776945970'
p63
aS'2776970502'
p64
aS'2776975507'
p65
aS'2776976196'
p66
aS'2776977520'
p67
aS'2777174408'
p68
aS'2777181692'
p69
aS'2777192960'
p70
aS'2777340053'
p71
aS'2777363482'
p72
aS'2777798033'
p73
aS'2777806411'
p74
aS'2777840262'
p75
aS'2777866414'
p76
aS'2777996251'
p77
aS'2778242627'
p78
aS'2778344162'
p79
aS'2778410516'
p80
aS'2778449176'
p81
aS'2778541851'
p82
aS'2778598237'
p83
aS'2778652802'
p84
aS'2778660688'
p85
aS'2778774064'
p86
aS'2778926280'
p87
aS'2779308450'
p88
aS'2779914087'
p89
aS'2780077274'
p90
aS'2780433417'
p91
aS'2780509928'
p92
aS'2781097863'
p93
aS'2781133455'
p94
aS'2781155366'
p95
aS'2781200493'
p96
aS'2781267277'
p97
aS'2781475297'
p98
aS'2781941144'
p99
aS'2782059055'
p100
aS'2782099317'
p101
aS'2782160268'
p102
aS'2782173767'
p103
aS'2782223687'
p104
aS'2782430159'
p105
aS'2782618786'
p106
aS'2782643559'
p107
aS'2782823320'
p108
aS'2782992862'
p109
aS'2783301513'
p110
aS'2783659721'
p111
aS'2783685450'
p112
aS'2783836277'
p113
aS'2783850521'
p114
aS'2784400598'
p115
aS'2784447242'
p116
aS'2784600347'
p117
aS'2784689114'
p118
aS'2784956096'
p119
aS'2784993649'
p120
aS'2785003011'
p121
aS'2785124138'
p122
aS'2785423649'
p123
aS'2785552739'
p124
aS'2785616767'
p125
aS'2785622410'
p126
aS'2785654094'
p127
aS'2785726345'
p128
aS'2785748496'
p129
aS'2785896625'
p130
aS'2785897988'
p131
aS'2785903941'
p132
aS'2785905340'
p133
aS'2786060791'
p134
aS'2786209237'
p135
aS'2786274885'
p136
aS'2786369535'
p137
aS'2786380905'
p138
aS'2786405859'
p139
aS'2786457128'
p140
aS'2786487379'
p141
aS'2786516407'
p142
aS'2786599597'
p143
aS'2786600696'
p144
aS'2786612790'
p145
aS'2786737421'
p146
aS'2786762024'
p147
aS'2786824996'
p148
aS'2786851440'
p149
aS'2786860017'
p150
aS'2786860859'
p151
aS'2786878977'
p152
aS'2787056187'
p153
aS'2787137407'
p154
aS'2787283292'
p155
aS'2787490861'
p156
aS'2787500452'
p157
aS'2787688165'
p158
aS'2787899438'
p159
aS'2787966018'
p160
aS'2788035557'
p161
aS'2788075155'
p162
aS'2788113021'
p163
aS'2788276178'
p164
aS'2788740677'
p165
aS'2788825335'
p166
aS'2788902331'
p167
aS'2789049079'
p168
aS'2789057685'
p169
aS'2789449120'
p170
aS'2789462226'
p171
aS'2789484676'
p172
aS'2789566876'
p173
aS'2789576218'
p174
aS'2789596829'
p175
aS'2789616741'
p176
aS'2790173790'
p177
aS'2790227308'
p178
aS'2790633063'
p179
aS'2790790628'
p180
aS'2790894262'
p181
aS'2791075993'
p182
aS'2791089371'
p183
aS'2791331626'
p184
aS'2791397367'
p185
aS'2792043592'
p186
aS'2792177471'
p187
aS'2792189570'
p188
aS'2792814091'
p189
aS'2792933955'
p190
aS'2793000556'
p191
aS'2793073763'
p192
aS'2793377673'
p193
aS'2793746860'
p194
aS'2793764624'
p195
aS'2793808443'
p196
aS'2793967051'
p197
aS'2794014146'
p198
aS'2794020599'
p199
aS'2794070249'
p200
aS'2794363202'
p201
aS'2794416133'
p202
aS'2794509661'
p203
aS'2794596945'
p204
aS'2795192014'
p205
aS'2795265628'
p206
aS'2795311267'
p207
aS'2795320276'
p208
aS'2795406415'
p209
aS'2795548799'
p210
aS'2795579114'
p211
aS'2795613526'
p212
aS'2795681418'
p213
aS'2795701762'
p214
aS'2795855886'
p215
aS'2795874990'
p216
aS'2795898045'
p217
aS'2795927755'
p218
aS'2796057615'
p219
aS'2796113566'
p220
aS'2796204728'
p221
aS'2796248167'
p222
aS'2796316899'
p223
aS'2796415397'
p224
aS'2796639438'
p225
aS'2796645526'
p226
aS'2796746330'
p227
aS'2796804635'
p228
aS'2796858464'
p229
aS'2797000386'
p230
aS'2797024885'
p231
aS'2797363350'
p232
aS'2797690635'
p233
aS'2797705078'
p234
aS'2797889519'
p235
aS'2797916354'
p236
aS'2797944490'
p237
aS'2797987719'
p238
aS'2798145842'
p239
aS'2798342309'
p240
aS'2798748500'
p241
aS'2798800894'
p242
aS'2798839609'
p243
aS'2798882386'
p244
aS'2799231375'
p245
aS'2799581817'
p246
aS'2799722829'
p247
aS'2799946141'
p248
aS'2800431217'
p249
aS'2800671883'
p250
aS'2800819395'
p251
aS'2800820298'
p252
aS'2801251439'
p253
aS'2801592927'
p254
aS'2801945312'
p255
aS'2802100708'
p256
aS'2802759861'
p257
aS'2802847192'
p258
aS'2803414195'
p259
aS'2803461653'
p260
aS'2803506484'
p261
aS'2803533160'
p262
aS'2803766529'
p263
aS'2804095498'
p264
aS'2804098921'
p265
aS'2804175941'
p266
aS'2804243612'
p267
aS'2804382953'
p268
aS'2804533639'
p269
aS'2804700635'
p270
aS'2804717089'
p271
aS'2804750253'
p272
aS'2804787672'
p273
aS'2805210465'
p274
aS'2805331391'
p275
aS'2805462925'
p276
aS'2805582353'
p277
aS'2805701738'
p278
aS'2806009554'
p279
aS'2806173794'
p280
aS'2806241629'
p281
aS'2806807961'
p282
aS'2806827760'
p283
aS'2806871332'
p284
aS'2806906521'
p285
aS'2806919793'
p286
aS'2807276746'
p287
aS'2807824298'
p288
aS'2807856018'
p289
aS'2808196917'
p290
aS'2808403602'
p291
aS'2808524811'
p292
aS'2808664693'
p293
aS'2808716271'
p294
aS'2808770586'
p295
aS'2808788393'
p296
aS'2808813648'
p297
aS'2808828006'
p298
aS'2808878473'
p299
aS'2809004085'
p300
aS'2809074957'
p301
aS'2809075593'
p302
aS'2809173935'
p303
aS'2809314153'
p304
aS'2809334218'
p305
aS'2809434305'
p306
aS'2809471993'
p307
aS'2809503581'
p308
aS'2809676497'
p309
aS'2809726411'
p310
aS'2809868456'
p311
aS'2810121468'
p312
aS'2810567862'
p313
aS'2810848190'
p314
aS'2811044072'
p315
aS'2811165738'
p316
aS'2811223038'
p317
aS'2811432985'
p318
aS'2811674316'
p319
aS'2811676211'
p320
aS'2811796873'
p321
aS'2811828906'
p322
aS'2811998359'
p323
aS'2812062118'
p324
aS'2812095187'
p325
aS'2812140703'
p326
aS'2812212035'
p327
aS'2812212625'
p328
aS'2812212874'
p329
aS'2812391580'
p330
aS'2812498168'
p331
aS'2812532754'
p332
aS'2812569597'
p333
aS'2812648938'
p334
aS'2812703561'
p335
aS'2812706747'
p336
aS'2812707135'
p337
aS'2812769667'
p338
aS'2812772829'
p339
aS'2812782478'
p340
aS'2813008661'
p341
aS'2813053890'
p342
aS'2813064259'
p343
aS'2813383129'
p344
aS'2813386846'
p345
aS'2813529619'
p346
aS'2813595747'
p347
aS'2813977018'
p348
aS'2814182634'
p349
aS'2814185694'
p350
aS'2814238916'
p351
aS'2814249640'
p352
aS'2814675875'
p353
aS'2814821774'
p354
aS'2814831118'
p355
aS'2814833302'
p356
aS'2814859491'
p357
aS'2814921426'
p358
aS'2814992220'
p359
aS'2815037357'
p360
aS'2815054159'
p361
aS'2815084822'
p362
aS'2815087019'
p363
aS'2815157978'
p364
aS'2815373860'
p365
aS'2815405801'
p366
aS'2815426961'
p367
aS'2815487382'
p368
aS'2815510920'
p369
aS'2815526055'
p370
aS'2815536987'
p371
aS'2815556180'
p372
aS'2815595263'
p373
aS'2815607863'
p374
aS'2815611399'
p375
aS'2815704281'
p376
aS'2815881231'
p377
aS'2815947561'
p378
aS'2816033448'
p379
aS'2816154309'
p380
aS'2816168801'
p381
aS'2816266478'
p382
aS'2816332980'
p383
aS'2816353005'
p384
aS'2816531916'
p385
aS'2816650311'
p386
aS'2816781774'
p387
aS'2816808692'
p388
aS'2816876898'
p389
aS'2816929630'
p390
aS'2817046425'
p391
aS'2817229624'
p392
aS'2817345470'
p393
aS'2817772332'
p394
aS'2817783559'
p395
aS'2817793764'
p396
aS'2817828272'
p397
aS'2817835245'
p398
aS'2818048624'
p399
aS'2818268392'
p400
aS'2818307909'
p401
aS'2818359249'
p402
aS'2818381190'
p403
aS'2819337687'
p404
aS'2819569626'
p405
aS'2819770484'
p406
aS'2820249472'
p407
aS'2820385238'
p408
aS'2821166616'
p409
aS'2821649018'
p410
aS'2821823128'
p411
aS'2821899693'
p412
aS'2822349641'
p413
aS'2822392425'
p414
aS'2822615632'
p415
aS'2822829451'
p416
aS'2823070167'
p417
aS'2823095979'
p418
aS'2823413997'
p419
aS'2823552240'
p420
aS'2823698361'
p421
aS'2823705332'
p422
aS'2824129259'
p423
aS'2824257120'
p424
aS'2824599757'
p425
aS'2824660207'
p426
aS'2825002279'
p427
aS'2825101521'
p428
aS'2825146057'
p429
aS'2826127055'
p430
aS'2826303064'
p431
aS'2826605067'
p432
aS'2827680086'
p433
aS'2827800631'
p434
aS'2827859722'
p435
aS'2827874939'
p436
aS'2827915085'
p437
aS'2827971383'
p438
aS'2828174105'
p439
aS'2828486656'
p440
aS'2828500280'
p441
aS'2828615137'
p442
aS'2829110823'
p443
aS'2829292103'
p444
aS'2829641291'
p445
aS'2830131872'
p446
aS'2830249086'
p447
aS'2830288889'
p448
aS'2830528228'
p449
aS'2830591382'
p450
aS'2830596497'
p451
aS'2830641206'
p452
aS'2830715054'
p453
aS'2830901717'
p454
aS'2831579702'
p455
aS'2831808561'
p456
aS'2832083204'
p457
aS'2832217744'
p458
aS'2833073215'
p459
aS'2833113441'
p460
aS'2833214164'
p461
aS'2833354286'
p462
aS'2833500470'
p463
aS'2833594079'
p464
aS'2833808791'
p465
aS'2833889515'
p466
aS'2834381132'
p467
aS'2834394224'
p468
aS'2834764058'
p469
aS'2835015891'
p470
aS'2835161162'
p471
aS'2835489253'
p472
aS'2835933316'
p473
aS'2836007458'
p474
aS'2837166547'
p475
aS'2837380010'
p476
aS'2837928602'
p477
aS'2838526928'
p478
aS'2838897961'
p479
aS'2838934408'
p480
aS'2839196520'
p481
aS'2839994087'
p482
aS'2840543474'
p483
aS'2840771020'
p484
aS'2841927796'
p485
aS'2842158205'
p486
aS'2842339227'
p487
aS'2843136569'
p488
aS'2843163202'
p489
aS'2843815108'
p490
aS'2844115454'
p491
aS'2845812425'
p492
aS'2846353867'
p493
aS'2847196450'
p494
aS'2847532091'
p495
aS'2848951420'
p496
aS'2849125998'
p497
aS'2850287991'
p498
aS'2851571752'
p499
aS'2851770854'
p500
aS'2852232920'
p501
aS'2852457545'
p502
aS'2852581466'
p503
aS'2852634973'
p504
aS'2853048918'
p505
aS'2853092548'
p506
aS'2853102781'
p507
aS'2853644384'
p508
aS'2853730799'
p509
aS'2853736664'
p510
aS'2853935426'
p511
aS'2854012772'
p512
aS'2854594652'
p513
aS'2856671067'
p514
aS'2856813670'
p515
aS'2857218492'
p516
aS'2857874566'
p517
aS'2858125745'
p518
aS'2858971172'
p519
aS'2859364601'
p520
aS'2859435855'
p521
aS'2860057892'
p522
aS'2860127467'
p523
aS'2860426068'
p524
aS'2861584918'
p525
aS'2862281578'
p526
aS'2862451218'
p527
aS'2862509465'
p528
aS'2863046929'
p529
aS'2863072637'
p530
aS'2863074713'
p531
aS'2863341277'
p532
aS'2863614362'
p533
aS'2863645684'
p534
aS'2865948316'
p535
aS'2866646378'
p536
aS'2869167757'
p537
aS'2869800202'
p538
aS'2871716309'
p539
aS'2872207494'
p540
aS'2873050066'
p541
aS'2875083108'
p542
aS'2875977492'
p543
aS'2876021624'
p544
aS'2876702062'
p545
aS'2876974609'
p546
aS'2877121301'
p547
aS'2877636456'
p548
aS'2879013321'
p549
aS'2879829081'
p550
aS'2880166080'
p551
aS'2880549294'
p552
aS'2880818894'
p553
aS'2881142163'
p554
aS'2881225663'
p555
aS'2882809478'
p556
aS'2883613830'
p557
aS'2885036971'
p558
aS'2886637484'
p559
aS'2891098650'
p560
aS'2891869276'
p561
aS'2891913136'
p562
aS'2891942639'
p563
aS'2893166589'
p564
aS'2893523770'
p565
aS'2893549645'
p566
aS'2894574820'
p567
aS'2896847554'
p568
aS'2897299578'
p569
aS'2897388200'
p570
aS'2897439673'
p571
aS'2900886750'
p572
aS'2901018143'
p573
aS'2902774956'
p574
aS'2902835038'
p575
aS'2903511794'
p576
aS'2903613865'
p577
aS'2905259449'
p578
aS'2905913032'
p579
aS'2906878991'
p580
aS'2907731249'
p581
aS'2908536093'
p582
aS'2908563811'
p583
aS'2910892989'
p584
aS'2911253339'
p585
aS'2911300239'
p586
aS'2913214512'
p587
aS'2913637312'
p588
aS'2913675829'
p589
aS'2914183969'
p590
aS'2915285637'
p591
aS'2916427932'
p592
aS'2916468763'
p593
aS'2919397637'
p594
aS'2920846974'
p595
aS'2921901563'
p596
aS'2923080821'
p597
aS'2923311876'
p598
aS'2923777092'
p599
aS'2923845832'
p600
aS'2924278559'
p601
aS'2924472091'
p602
aS'2924478047'
p603
aS'2925951470'
p604
aS'2926495244'
p605
aS'2928665911'
p606
aS'2928668182'
p607
aS'2929273313'
p608
aS'2932536951'
p609
aS'2934358147'
p610
aS'2934382684'
p611
aS'2935298585'
p612
aS'2936559539'
p613
aS'2937695383'
p614
aS'2938479889'
p615
aS'2938515954'
p616
aS'2942292065'
p617
aS'2942391633'
p618
aS'2943255824'
p619
aS'2943481750'
p620
aS'2947775415'
p621
aS'2947949185'
p622
aS'2948293546'
p623
aS'2948739559'
p624
aS'2950087728'
p625
aS'2953926640'
p626
aS'2956151753'
p627
aS'2958947302'
p628
aS'2959764815'
p629
aS'2964363437'
p630
aS'2964428079'
p631
aS'2967232286'
p632
aS'2968116904\\\n'
p633
aS'2870672569'
p634
aS'2870686956'
p635
aS'2873414679'
p636
aS'2882579609'
p637
aS'2888046653'
p638
aS'2894660420'
p639
aS'2900601361'
p640
aS'2912636783'
p641
aS'2912670787\\\n'
p642
aS'2781818424'
p643
aS'2844984244'
p644
aS'2869800493\\\n'
p645
aS'2757640527'
p646
aS'2759339032'
p647
aS'2760886923'
p648
aS'2762884823'
p649
aS'2763738762'
p650
aS'2765702348'
p651
aS'2768806545'
p652
aS'2770433691'
p653
aS'2770450611'
p654
aS'2771010736'
p655
aS'2771185133'
p656
aS'2772361955'
p657
aS'2772606650'
p658
aS'2774356672'
p659
aS'2775695784'
p660
aS'2775858396'
p661
aS'2778002769'
p662
aS'2779871636'
p663
aS'2783741494'
p664
aS'2784812788'
p665
aS'2787911924'
p666
aS'2804376804'
p667
aS'2809000628'
p668
aS'2823134485'
p669
aS'2825829457'
p670
aS'2827026982'
p671
aS'2827741694'
p672
aS'2829467579'
p673
aS'2833450578'
p674
aS'2835433969'
p675
aS'2837470409'
p676
aS'2849002369'
p677
aS'2852307597'
p678
aS'2863118507'
p679
aS'2863356249'
p680
aS'2869800343'
p681
aS'2876261265'
p682
aS'2879642373'
p683
aS'2885516905'
p684
aS'2898148074'
p685
aS'2902461769'
p686
aS'2912070305'
p687
aS'2928825205'
p688
aS'2932771499'
p689
aS'2952305739\\\n'
p690
aS'2101756481'
p691
aS'2107050936'
p692
aS'2132777410'
p693
aS'2267362328'
p694
aS'2296036955'
p695
aS'2313401524'
p696
aS'2318043529'
p697
aS'2416640362'
p698
aS'2576774946'
p699
aS'2869799736'
p700
aS'2873171832}\n'
p701
aS'1778117913.mp4'
p702
aS'1927449303.mp4'
p703
aS'1963591419.mp4'
p704
aS'1970459913.mp4'
p705
aS'1995751254.mp4'
p706
aS'2078064274.mp4'
p707
aS'2080516845.mp4'
p708
aS'2086342861.mp4'
p709
aS'2089663214.mp4'
p710
aS'2143305398.mp4'
p711
aS'2194274771.mp4'
p712
aS'2195882384.mp4'
p713
aS'2206857101.mp4'
p714
aS'2212670097.mp4'
p715
aS'2224706911.mp4'
p716
aS'2224802043.mp4'
p717
aS'2225486242.mp4'
p718
aS'2225502772.mp4'
p719
aS'2225843804.mp4'
p720
aS'2226102702.mp4'
p721
aS'2226499816.mp4'
p722
aS'2226636802.mp4'
p723
aS'2226672408.mp4'
p724
aS'2226704459.mp4'
p725
aS'2226746363.mp4'
p726
aS'2226806424.mp4'
p727
aS'2226835932.mp4'
p728
aS'2226932724.mp4'
p729
aS'2227059503.mp4'
p730
aS'2227073823.mp4'
p731
aS'2227108021.mp4'
p732
aS'2227162025.mp4'
p733
aS'2237730114.mp4'
p734
aS'2269706724.mp4'
p735
aS'2335967827.mp4'
p736
aS'2385007697.mp4'
p737
aS'2388249319.mp4'
p738
aS'2388691876.mp4'
p739
aS'2390008030.mp4'
p740
aS'2403768037.mp4'
p741
aS'2500937745.mp4'
p742
aS'2519560611.mp4'
p743
aS'2522600229.mp4'
p744
aS'2526433596.mp4'
p745
aS'2537971733.mp4'
p746
aS'2550146385.mp4'
p747
aS'2557210622.mp4'
p748
aS'2569939586.mp4'
p749
aS'2576809060.mp4'
p750
aS'2597701562.mp4'
p751
aS'2600729059.mp4'
p752
aS'2603533378.mp4'
p753
aS'2605355255.mp4'
p754
aS'2605372671.mp4'
p755
aS'2605373471.mp4'
p756
aS'2605378228.mp4'
p757
aS'2611432003.mp4'
p758
aS'2617000986.mp4'
p759
aS'2625625239.mp4'
p760
aS'2629407897.mp4'
p761
aS'2634029313.mp4'
p762
aS'2636888801.mp4'
p763
aS'2644311188.mp4'
p764
aS'2644701534.mp4'
p765
aS'2648060870.mp4'
p766
aS'2648192071.mp4'
p767
aS'2648900155.mp4'
p768
aS'2649052013.mp4'
p769
aS'2649602013.mp4'
p770
aS'2651693380.mp4'
p771
aS'2653611094.mp4'
p772
aS'2654710880.mp4'
p773
aS'2654891180.mp4'
p774
aS'2655494791.mp4'
p775
aS'2655739070.mp4'
p776
aS'2655782622.mp4'
p777
aS'2656340268.mp4'
p778
aS'2656370848.mp4'
p779
aS'2656840269.mp4'
p780
aS'2657567593.mp4'
p781
aS'2657948031.mp4'
p782
aS'2658444677.mp4'
p783
aS'2658610875.mp4'
p784
aS'2658727741.mp4'
p785
aS'2658874271.mp4'
p786
aS'2658948046.mp4'
p787
aS'2659228493.mp4'
p788
aS'2659753983.mp4'
p789
aS'2660478480.mp4'
p790
aS'2660538492.mp4'
p791
aS'2661645506.mp4'
p792
aS'2661687841.mp4'
p793
aS'2662050924.mp4'
p794
aS'2662092520.mp4'
p795
aS'2662288638.mp4'
p796
aS'2662575208.mp4'
p797
aS'2663107850.mp4'
p798
aS'2664067421.mp4'
p799
aS'2664299130.mp4'
p800
aS'2664473837.mp4'
p801
aS'2664586055.mp4'
p802
aS'2664659460.mp4'
p803
aS'2665077689.mp4'
p804
aS'2665232908.mp4'
p805
aS'2665257825.mp4'
p806
aS'2665357743.mp4'
p807
aS'2665497706.mp4'
p808
aS'2665836379.mp4'
p809
aS'2665994946.mp4'
p810
aS'2666082438.mp4'
p811
aS'2666409216.mp4'
p812
aS'2667226319.mp4'
p813
aS'2667395735.mp4'
p814
aS'2667452139.mp4'
p815
aS'2667543034.mp4'
p816
aS'2667580449.mp4'
p817
aS'2668240476.mp4'
p818
aS'2668279664.mp4'
p819
aS'2668297123.mp4'
p820
aS'2668604814.mp4'
p821
aS'2668945240.mp4'
p822
aS'2668990343.mp4'
p823
aS'2669427655.mp4'
p824
aS'2669500355.mp4'
p825
aS'2669525903.mp4'
p826
aS'2669673935.mp4'
p827
aS'2669972719.mp4'
p828
aS'2670033053.mp4'
p829
aS'2670047009.mp4'
p830
aS'2670062300.mp4'
p831
aS'2670194256.mp4'
p832
aS'2670209747.mp4'
p833
aS'2670325821.mp4'
p834
aS'2670358891.mp4'
p835
aS'2670375593.mp4'
p836
aS'2670434917.mp4'
p837
aS'2670528327.mp4'
p838
aS'2670532585.mp4'
p839
aS'2670938800.mp4'
p840
aS'2671126279.mp4'
p841
aS'2671239588.mp4'
p842
aS'2671350017.mp4'
p843
aS'2671491392.mp4'
p844
aS'2671603086.mp4'
p845
aS'2671838858.mp4'
p846
aS'2671929152.mp4'
p847
aS'2672009145.mp4'
p848
aS'2672111380.mp4'
p849
aS'2672138138.mp4'
p850
aS'2672138535.mp4'
p851
aS'2672264054.mp4'
p852
aS'2672298070.mp4'
p853
aS'2672312552.mp4'
p854
aS'2672316439.mp4'
p855
aS'2672333759.mp4'
p856
aS'2672333798.mp4'
p857
aS'2672336303.mp4'
p858
aS'2672336675.mp4'
p859
aS'2672336734.mp4'
p860
aS'2672337102.mp4'
p861
aS'2672467403.mp4'
p862
aS'2672469005.mp4'
p863
aS'2672480916.mp4'
p864
aS'2672488256.mp4'
p865
aS'2672488275.mp4'
p866
aS'2672491060.mp4'
p867
aS'2672492676.mp4'
p868
aS'2672493936.mp4'
p869
aS'2672497650.mp4'
p870
aS'2672509125.mp4'
p871
aS'2672571914.mp4'
p872
aS'2672572519.mp4'
p873
aS'2672573570.mp4'
p874
aS'2672573768.mp4'
p875
aS'2672576222.mp4'
p876
aS'2672583334.mp4'
p877
aS'2672584620.mp4'
p878
aS'2672584938.mp4'
p879
aS'2672586508.mp4'
p880
aS'2672642663.mp4'
p881
aS'2672666713.mp4'
p882
aS'2672670172.mp4'
p883
aS'2672671170.mp4'
p884
aS'2672671677.mp4'
p885
aS'2672685984.mp4'
p886
aS'2672688039.mp4'
p887
aS'2672688061.mp4'
p888
aS'2672689603.mp4'
p889
aS'2672707714.mp4'
p890
aS'2672708563.mp4'
p891
aS'2672710238.mp4'
p892
aS'2672738251.mp4'
p893
aS'2672738551.mp4'
p894
aS'2672746505.mp4'
p895
aS'2672747472.mp4'
p896
aS'2672964690.mp4'
p897
aS'2673030971.mp4'
p898
aS'2673118256.mp4'
p899
aS'2673121731.mp4'
p900
aS'2673126822.mp4'
p901
aS'2673128029.mp4'
p902
aS'2673181856.mp4'
p903
aS'2673197115.mp4'
p904
aS'2673382808.mp4'
p905
aS'2673426626.mp4'
p906
aS'2673509880.mp4'
p907
aS'2673509959.mp4'
p908
aS'2673549440.mp4'
p909
aS'2673549461.mp4'
p910
aS'2673551670.mp4'
p911
aS'2673554257.mp4'
p912
aS'2673557866.mp4'
p913
aS'2673562682.mp4'
p914
aS'2673565147.mp4'
p915
aS'2673565516.mp4'
p916
aS'2673567938.mp4'
p917
aS'2673569236.mp4'
p918
aS'2673570613.mp4'
p919
aS'2673571444.mp4'
p920
aS'2673572090.mp4'
p921
aS'2673573452.mp4'
p922
aS'2673588867.mp4'
p923
aS'2673708370.mp4'
p924
aS'2673730164.mp4'
p925
aS'2673789668.mp4'
p926
aS'2673844105.mp4'
p927
aS'2673988396.mp4'
p928
aS'2673991415.mp4'
p929
aS'2673991688.mp4'
p930
aS'2674010534.mp4'
p931
aS'2674033213.mp4'
p932
aS'2674033246.mp4'
p933
aS'2674033335.mp4'
p934
aS'2674039762.mp4'
p935
aS'2674042211.mp4'
p936
aS'2674042411.mp4'
p937
aS'2674045749.mp4'
p938
aS'2674046019.mp4'
p939
aS'2674047019.mp4'
p940
aS'2674048200.mp4'
p941
aS'2674049193.mp4'
p942
aS'2674050518.mp4'
p943
aS'2674050678.mp4'
p944
aS'2674083859.mp4'
p945
aS'2674164008.mp4'
p946
aS'2674164149.mp4'
p947
aS'2674164275.mp4'
p948
aS'2674168680.mp4'
p949
aS'2674250086.mp4'
p950
aS'2674666990.mp4'
p951
aS'2675272025.mp4'
p952
aS'2675445059.mp4'
p953
aS'2675497473.mp4'
p954
aS'2675951525.mp4'
p955
aS'2677179873.mp4'
p956
aS'2677517440.mp4'
p957
aS'2677573705.mp4'
p958
aS'2677622833.mp4'
p959
aS'2677762045.mp4'
p960
aS'2677957249.mp4'
p961
aS'2677961761.mp4'
p962
aS'2677986368.mp4'
p963
aS'2677986529.mp4'
p964
aS'2677986685.mp4'
p965
aS'2677991349.mp4'
p966
aS'2678079285.mp4'
p967
aS'2678080122.mp4'
p968
aS'2678080358.mp4'
p969
aS'2678080903.mp4'
p970
aS'2678081334.mp4'
p971
aS'2678083226.mp4'
p972
aS'2678083335.mp4'
p973
aS'2678585469.mp4'
p974
aS'2679006945.mp4'
p975
aS'2683382646.mp4'
p976
aS'2683593524.mp4'
p977
aS'2683875738.mp4'
p978
aS'2684250049.mp4'
p979
aS'2684345642.mp4'
p980
aS'2684948385.mp4'
p981
aS'2685474008.mp4'
p982
aS'2685982114.mp4'
p983
aS'2686152306.mp4'
p984
aS'2686152569.mp4'
p985
aS'2686153157.mp4'
p986
aS'2686153860.mp4'
p987
aS'2686154867.mp4'
p988
aS'2686157409.mp4'
p989
aS'2686157768.mp4'
p990
aS'2686424387.mp4'
p991
aS'2686428681.mp4'
p992
aS'2686442364.mp4'
p993
aS'2686456617.mp4'
p994
aS'2686464248.mp4'
p995
aS'2686513056.mp4'
p996
aS'2686514147.mp4'
p997
aS'2686515384.mp4'
p998
aS'2686523510.mp4'
p999
aS'2686526598.mp4'
p1000
aS'2686529451.mp4'
p1001
aS'2686531077.mp4'
p1002
aS'2686564233.mp4'
p1003
aS'2686564512.mp4'
p1004
aS'337673533.mp4'
p1005
aS'774757912.mp4'
p1006
aa(lp1007
g2
ag3
ag4
ag5
ag6
ag7
ag8
ag9
aa(lp1008
(lp1009
g2
ag10
aa(lp1010
g3
ag11
ag12
ag13
ag14
ag15
ag16
ag17
ag18
ag19
aa(lp1011
g4
ag20
aa(lp1012
g5
ag21
ag22
ag23
ag24
ag25
ag26
ag27
ag28
ag29
ag30
ag31
ag32
ag33
ag34
ag35
ag36
ag37
ag38
ag39
ag40
ag41
ag42
ag43
ag44
ag45
ag46
ag47
ag48
ag49
ag50
ag51
ag52
ag53
ag54
ag55
ag56
ag57
ag58
ag59
ag60
ag61
ag62
ag63
ag64
ag65
ag66
ag67
ag68
ag69
ag70
ag71
ag72
ag73
ag74
ag75
ag76
ag77
ag78
ag79
ag80
ag81
ag82
ag83
ag84
ag85
ag86
ag87
ag88
ag89
ag90
ag91
ag92
ag93
ag94
ag95
ag96
ag97
ag98
ag99
ag100
ag101
ag102
ag103
ag104
ag105
ag106
ag107
ag108
ag109
ag110
ag111
ag112
ag113
ag114
ag115
ag116
ag117
ag118
ag119
ag120
ag121
ag122
ag123
ag124
ag125
ag126
ag127
ag128
ag129
ag130
ag131
ag132
ag133
ag134
ag135
ag136
ag137
ag138
ag139
ag140
ag141
ag142
ag143
ag144
ag145
ag146
ag147
ag148
ag149
ag150
ag151
ag152
ag153
ag154
ag155
ag156
ag157
ag158
ag159
ag160
ag161
ag162
ag163
ag164
ag165
ag166
ag167
ag168
ag169
ag170
ag171
ag172
ag173
ag174
ag175
ag176
ag177
ag178
ag179
ag180
ag181
ag182
ag183
ag184
ag185
ag186
ag187
ag188
ag189
ag190
ag191
ag192
ag193
ag194
ag195
ag196
ag197
ag198
ag199
ag200
ag201
ag202
ag203
ag204
ag205
ag206
ag207
ag208
ag209
ag210
ag211
ag212
ag213
ag214
ag215
ag216
ag217
ag218
ag219
ag220
ag221
ag222
ag223
ag224
ag225
ag226
ag227
ag228
ag229
ag230
ag231
ag232
ag233
ag234
ag235
ag236
ag237
ag238
ag239
ag240
ag241
ag242
ag243
ag244
ag245
ag246
ag247
ag248
ag249
ag250
ag251
ag252
ag253
ag254
ag255
ag256
ag257
ag258
ag259
ag260
ag261
ag262
ag263
ag264
ag265
ag266
ag267
ag268
ag269
ag270
ag271
ag272
ag273
ag274
ag275
ag276
ag277
ag278
ag279
ag280
ag281
ag282
ag283
ag284
ag285
ag286
ag287
ag288
ag289
ag290
ag291
ag292
ag293
ag294
ag295
ag296
ag297
ag298
ag299
ag300
ag301
ag302
ag303
ag304
ag305
ag306
ag307
ag308
ag309
ag310
ag311
ag312
ag313
ag314
ag315
ag316
ag317
ag318
ag319
ag320
ag321
ag322
ag323
ag324
ag325
ag326
ag327
ag328
ag329
ag330
ag331
ag332
ag333
ag334
ag335
ag336
ag337
ag338
ag339
ag340
ag341
ag342
ag343
ag344
ag345
ag346
ag347
ag348
ag349
ag350
ag351
ag352
ag353
ag354
ag355
ag356
ag357
ag358
ag359
ag360
ag361
ag362
ag363
ag364
ag365
ag366
ag367
ag368
ag369
ag370
ag371
ag372
ag373
ag374
ag375
ag376
ag377
ag378
ag379
ag380
ag381
ag382
ag383
ag384
ag385
ag386
ag387
ag388
ag389
ag390
ag391
ag392
ag393
ag394
ag395
ag396
ag397
ag398
ag399
ag400
ag401
ag402
ag403
ag404
ag405
ag406
ag407
ag408
ag409
ag410
ag411
ag412
ag413
ag414
ag415
ag416
ag417
ag418
ag419
ag420
ag421
ag422
ag423
ag424
ag425
ag426
ag427
ag428
ag429
ag430
ag431
ag432
ag433
ag434
ag435
ag436
ag437
ag438
ag439
ag440
ag441
ag442
ag443
ag444
ag445
ag446
ag447
ag448
ag449
ag450
ag451
ag452
ag453
ag454
ag455
ag456
ag457
ag458
ag459
ag460
ag461
ag462
ag463
ag464
ag465
ag466
ag467
ag468
ag469
ag470
ag471
ag472
ag473
ag474
ag475
ag476
ag477
ag478
ag479
ag480
ag481
ag482
ag483
ag484
ag485
ag486
ag487
ag488
ag489
ag490
ag491
ag492
ag493
ag494
ag495
ag496
ag497
ag498
ag499
ag500
ag501
ag502
ag503
ag504
ag505
ag506
ag507
ag508
ag509
ag510
ag511
ag512
ag513
ag514
ag515
ag516
ag517
ag518
ag519
ag520
ag521
ag522
ag523
ag524
ag525
ag526
ag527
ag528
ag529
ag530
ag531
ag532
ag533
ag534
ag535
ag536
ag537
ag538
ag539
ag540
ag541
ag542
ag543
ag544
ag545
ag546
ag547
ag548
ag549
ag550
ag551
ag552
ag553
ag554
ag555
ag556
ag557
ag558
ag559
ag560
ag561
ag562
ag563
ag564
ag565
ag566
ag567
ag568
ag569
ag570
ag571
ag572
ag573
ag574
ag575
ag576
ag577
ag578
ag579
ag580
ag581
ag582
ag583
ag584
ag585
ag586
ag587
ag588
ag589
ag590
ag591
ag592
ag593
ag594
ag595
ag596
ag597
ag598
ag599
ag600
ag601
ag602
ag603
ag604
ag605
ag606
ag607
ag608
ag609
ag610
ag611
ag612
ag613
ag614
ag615
ag616
ag617
ag618
ag619
ag620
ag621
ag622
ag623
ag624
ag625
ag626
ag627
ag628
ag629
ag630
ag631
ag632
ag633
aa(lp1013
g6
ag634
ag635
ag636
ag637
ag638
ag639
ag640
ag641
ag642
aa(lp1014
g7
ag643
ag644
ag645
aa(lp1015
g8
ag646
ag647
ag648
ag649
ag650
ag651
ag652
ag653
ag654
ag655
ag656
ag657
ag658
ag659
ag660
ag661
ag662
ag663
ag664
ag665
ag666
ag667
ag668
ag669
ag670
ag671
ag672
ag673
ag674
ag675
ag676
ag677
ag678
ag679
ag680
ag681
ag682
ag683
ag684
ag685
ag686
ag687
ag688
ag689
ag690
aa(lp1016
g9
ag691
ag692
ag693
ag694
ag695
ag696
ag697
ag698
ag699
ag700
ag701
aaa.